; Function Attrs: nounwind uwtable
define internal noalias ptr @ossl_aes128_gcm_siv_newctx(ptr noundef %0) #0 {
  %2 = tail call i32 @ossl_prov_is_running() #5
  %.not.i = icmp eq i32 %2, 0
  br i1 %.not.i, label %ossl_aes_gcm_siv_newctx.exit, label %3

3:                                                ; preds = %1
  %4 = tail call noalias ptr @CRYPTO_zalloc(i64 noundef 448, ptr noundef nonnull @.str, i32 noundef 34) #5
  %.not11.i = icmp eq ptr %4, null
  br i1 %.not11.i, label %ossl_aes_gcm_siv_newctx.exit, label %5

5:                                                ; preds = %3
  %6 = getelementptr inbounds nuw i8, ptr %4, i64 48
  store i64 16, ptr %6, align 8, !tbaa !3
  %7 = tail call ptr @ossl_prov_cipher_hw_aes_gcm_siv(i64 noundef 128) #5
  %8 = getelementptr inbounds nuw i8, ptr %4, i64 8
  store ptr %7, ptr %8, align 8, !tbaa !15
  %9 = tail call ptr @ossl_prov_ctx_get0_libctx(ptr noundef %0) #5
  %10 = getelementptr inbounds nuw i8, ptr %4, i64 24
  store ptr %9, ptr %10, align 8, !tbaa !16
  %11 = getelementptr inbounds nuw i8, ptr %4, i64 32
  store ptr %0, ptr %11, align 8, !tbaa !17
  br label %ossl_aes_gcm_siv_newctx.exit

ossl_aes_gcm_siv_newctx.exit:                     ; preds = %1, %3, %5
  %.0.i = phi ptr [ null, %1 ], [ %4, %5 ], [ null, %3 ]
  ret ptr %.0.i
}